target datalayout = "e-m:e-p270:32:32-p271:32:32-p272:64:64-i64:64-i128:128-f80:128-n8:16:32:64-S128"
target triple = "x86_64-pc-linux-gnu"

%struct.poly_st = type { [256 x i32] }
%struct.vector_st = type { ptr, i64 }

; Function Attrs: nounwind uwtable
define i32 @ossl_ml_dsa_vector_expand_S(ptr noundef %0, ptr noundef %1, i32 noundef %2, ptr noundef %3, ptr noundef %4, ptr noundef %5) #0 {
  %7 = alloca ptr, align 8
  %8 = alloca ptr, align 8
  %9 = alloca i32, align 4
  %10 = alloca ptr, align 8
  %11 = alloca ptr, align 8
  %12 = alloca ptr, align 8
  %13 = alloca i32, align 4
  %14 = alloca i64, align 8
  %15 = alloca i64, align 8
  %16 = alloca i64, align 8
  %17 = alloca [66 x i8], align 16
  %18 = alloca ptr, align 8
  store ptr %0, ptr %7, align 8, !tbaa !3
  store ptr %1, ptr %8, align 8, !tbaa !8
  store i32 %2, ptr %9, align 4, !tbaa !14
  store ptr %3, ptr %10, align 8, !tbaa !10
  store ptr %4, ptr %11, align 8, !tbaa !29
  store ptr %5, ptr %12, align 8, !tbaa !29
  call void @llvm.lifetime.start.p0(i64 4, ptr %13) #6
  store i32 0, ptr %13, align 4, !tbaa !14
  call void @llvm.lifetime.start.p0(i64 8, ptr %14) #6
  call void @llvm.lifetime.start.p0(i64 8, ptr %15) #6
  %19 = load ptr, ptr %11, align 8, !tbaa !29
  %20 = getelementptr inbounds nuw %struct.vector_st, ptr %19, i32 0, i32 1
  %21 = load i64, ptr %20, align 8, !tbaa !31
  store i64 %21, ptr %15, align 8, !tbaa !21
  call void @llvm.lifetime.start.p0(i64 8, ptr %16) #6
  %22 = load ptr, ptr %12, align 8, !tbaa !29
  %23 = getelementptr inbounds nuw %struct.vector_st, ptr %22, i32 0, i32 1
  %24 = load i64, ptr %23, align 8, !tbaa !31
  store i64 %24, ptr %16, align 8, !tbaa !21
  call void @llvm.lifetime.start.p0(i64 66, ptr %17) #6
  call void @llvm.lifetime.start.p0(i64 8, ptr %18) #6
  %25 = load i32, ptr %9, align 4, !tbaa !14
  %26 = icmp eq i32 %25, 4
  %27 = select i1 %26, ptr @coeff_from_nibble_4, ptr @coeff_from_nibble_2
  store ptr %27, ptr %18, align 8, !tbaa !33
  %28 = getelementptr inbounds [66 x i8], ptr %17, i64 0, i64 0
  %29 = load ptr, ptr %10, align 8, !tbaa !10
  call void @llvm.memcpy.p0.p0.i64(ptr align 16 %28, ptr align 1 %29, i64 64, i1 false)
  %30 = getelementptr inbounds [66 x i8], ptr %17, i64 0, i64 64
  store i8 0, ptr %30, align 16, !tbaa !24
  %31 = getelementptr inbounds [66 x i8], ptr %17, i64 0, i64 65
  store i8 0, ptr %31, align 1, !tbaa !24
  store i64 0, ptr %14, align 8, !tbaa !21
  br label %32

32:                                               ; preds = %53, %6
  %33 = load i64, ptr %14, align 8, !tbaa !21
  %34 = load i64, ptr %15, align 8, !tbaa !21
  %35 = icmp ult i64 %33, %34
  br i1 %35, label %36, label %56

36:                                               ; preds = %32
  %37 = load ptr, ptr %7, align 8, !tbaa !3
  %38 = load ptr, ptr %8, align 8, !tbaa !8
  %39 = load ptr, ptr %18, align 8, !tbaa !33
  %40 = getelementptr inbounds [66 x i8], ptr %17, i64 0, i64 0
  %41 = load ptr, ptr %11, align 8, !tbaa !29
  %42 = getelementptr inbounds nuw %struct.vector_st, ptr %41, i32 0, i32 0
  %43 = load ptr, ptr %42, align 8, !tbaa !34
  %44 = load i64, ptr %14, align 8, !tbaa !21
  %45 = getelementptr inbounds nuw %struct.poly_st, ptr %43, i64 %44
  %46 = call i32 @rej_bounded_poly(ptr noundef %37, ptr noundef %38, ptr noundef %39, ptr noundef %40, i64 noundef 66, ptr noundef %45)
  %47 = icmp ne i32 %46, 0
  br i1 %47, label %49, label %48

48:                                               ; preds = %36
  br label %82

49:                                               ; preds = %36
  %50 = getelementptr inbounds [66 x i8], ptr %17, i64 0, i64 64
  %51 = load i8, ptr %50, align 16, !tbaa !24
  %52 = add i8 %51, 1
  store i8 %52, ptr %50, align 16, !tbaa !24
  br label %53

53:                                               ; preds = %49
  %54 = load i64, ptr %14, align 8, !tbaa !21
  %55 = add i64 %54, 1
  store i64 %55, ptr %14, align 8, !tbaa !21
  br label %32, !llvm.loop !35

56:                                               ; preds = %32
  store i64 0, ptr %14, align 8, !tbaa !21
  br label %57

57:                                               ; preds = %78, %56
  %58 = load i64, ptr %14, align 8, !tbaa !21
  %59 = load i64, ptr %16, align 8, !tbaa !21
  %60 = icmp ult i64 %58, %59
  br i1 %60, label %61, label %81

61:                                               ; preds = %57
  %62 = load ptr, ptr %7, align 8, !tbaa !3
  %63 = load ptr, ptr %8, align 8, !tbaa !8
  %64 = load ptr, ptr %18, align 8, !tbaa !33
  %65 = getelementptr inbounds [66 x i8], ptr %17, i64 0, i64 0
  %66 = load ptr, ptr %12, align 8, !tbaa !29
  %67 = getelementptr inbounds nuw %struct.vector_st, ptr %66, i32 0, i32 0
  %68 = load ptr, ptr %67, align 8, !tbaa !34
  %69 = load i64, ptr %14, align 8, !tbaa !21
  %70 = getelementptr inbounds nuw %struct.poly_st, ptr %68, i64 %69
  %71 = call i32 @rej_bounded_poly(ptr noundef %62, ptr noundef %63, ptr noundef %64, ptr noundef %65, i64 noundef 66, ptr noundef %70)
  %72 = icmp ne i32 %71, 0
  br i1 %72, label %74, label %73

73:                                               ; preds = %61
  br label %82

74:                                               ; preds = %61
  %75 = getelementptr inbounds [66 x i8], ptr %17, i64 0, i64 64
  %76 = load i8, ptr %75, align 16, !tbaa !24
  %77 = add i8 %76, 1
  store i8 %77, ptr %75, align 16, !tbaa !24
  br label %78

78:                                               ; preds = %74
  %79 = load i64, ptr %14, align 8, !tbaa !21
  %80 = add i64 %79, 1
  store i64 %80, ptr %14, align 8, !tbaa !21
  br label %57, !llvm.loop !36

81:                                               ; preds = %57
  store i32 1, ptr %13, align 4, !tbaa !14
  br label %82

82:                                               ; preds = %81, %73, %48
  %83 = load i32, ptr %13, align 4, !tbaa !14
  call void @llvm.lifetime.end.p0(i64 8, ptr %18) #6
  call void @llvm.lifetime.end.p0(i64 66, ptr %17) #6
  call void @llvm.lifetime.end.p0(i64 8, ptr %16) #6
  call void @llvm.lifetime.end.p0(i64 8, ptr %15) #6
  call void @llvm.lifetime.end.p0(i64 8, ptr %14) #6
  call void @llvm.lifetime.end.p0(i64 4, ptr %13) #6
  ret i32 %83
}