; Function Attrs: nounwind uwtable
define range(i32 0, 2) i32 @ossl_ml_dsa_vector_expand_S(ptr noundef %0, ptr noundef %1, i32 noundef %2, ptr noundef readonly captures(none) %3, ptr noundef readonly captures(none) %4, ptr noundef readonly captures(none) %5) local_unnamed_addr #0 {
  %7 = alloca [66 x i8], align 16
  %8 = getelementptr inbounds nuw i8, ptr %4, i64 8
  %9 = load i64, ptr %8, align 8, !tbaa !20
  %10 = getelementptr inbounds nuw i8, ptr %5, i64 8
  %11 = load i64, ptr %10, align 8, !tbaa !20
  call void @llvm.lifetime.start.p0(i64 66, ptr nonnull %7) #6
  %12 = icmp eq i32 %2, 4
  %13 = select i1 %12, ptr @coeff_from_nibble_4, ptr @coeff_from_nibble_2
  call void @llvm.memcpy.p0.p0.i64(ptr noundef nonnull align 16 dereferenceable(64) %7, ptr noundef nonnull align 1 dereferenceable(64) %3, i64 64, i1 false)
  %14 = getelementptr inbounds nuw i8, ptr %7, i64 64
  store i8 0, ptr %14, align 16, !tbaa !12
  %15 = getelementptr inbounds nuw i8, ptr %7, i64 65
  store i8 0, ptr %15, align 1, !tbaa !12
  %.not28 = icmp eq i64 %9, 0
  br i1 %.not28, label %.preheader, label %.lr.ph

.preheader:                                       ; preds = %19, %6
  %.not29 = icmp eq i64 %11, 0
  br i1 %.not29, label %.loopexit, label %.lr.ph25

.lr.ph:                                           ; preds = %6, %19
  %.02023 = phi i64 [ %22, %19 ], [ 0, %6 ]
  %16 = load ptr, ptr %4, align 8, !tbaa !22
  %17 = getelementptr inbounds nuw %struct.poly_st, ptr %16, i64 %.02023
  %18 = call fastcc i32 @rej_bounded_poly(ptr noundef %0, ptr noundef %1, ptr noundef nonnull %13, ptr noundef %7, ptr noundef %17)
  %.not21 = icmp eq i32 %18, 0
  br i1 %.not21, label %.loopexit, label %19

19:                                               ; preds = %.lr.ph
  %20 = load i8, ptr %14, align 16, !tbaa !12
  %21 = add i8 %20, 1
  store i8 %21, ptr %14, align 16, !tbaa !12
  %22 = add nuw i64 %.02023, 1
  %exitcond.not = icmp eq i64 %22, %9
  br i1 %exitcond.not, label %.preheader, label %.lr.ph, !llvm.loop !23

.lr.ph25:                                         ; preds = %.preheader, %26
  %.124 = phi i64 [ %29, %26 ], [ 0, %.preheader ]
  %23 = load ptr, ptr %5, align 8, !tbaa !22
  %24 = getelementptr inbounds nuw %struct.poly_st, ptr %23, i64 %.124
  %25 = call fastcc i32 @rej_bounded_poly(ptr noundef %0, ptr noundef %1, ptr noundef nonnull %13, ptr noundef %7, ptr noundef %24)
  %.not = icmp eq i32 %25, 0
  br i1 %.not, label %.loopexit, label %26

26:                                               ; preds = %.lr.ph25
  %27 = load i8, ptr %14, align 16, !tbaa !12
  %28 = add i8 %27, 1
  store i8 %28, ptr %14, align 16, !tbaa !12
  %29 = add nuw i64 %.124, 1
  %exitcond31.not = icmp eq i64 %29, %11
  br i1 %exitcond31.not, label %.loopexit, label %.lr.ph25, !llvm.loop !24

.loopexit:                                        ; preds = %.lr.ph, %.lr.ph25, %26, %.preheader
  %.0 = phi i32 [ 1, %.preheader ], [ 0, %.lr.ph25 ], [ 1, %26 ], [ 0, %.lr.ph ]
  call void @llvm.lifetime.end.p0(i64 66, ptr nonnull %7) #6
  ret i32 %.0
}